target datalayout = "e-m:e-p270:32:32-p271:32:32-p272:64:64-i64:64-i128:128-f80:128-n8:16:32:64-S128"
target triple = "x86_64-pc-linux-gnu"

%"struct.net::AckListenerWrapper" = type <{ %class.scoped_refptr, i16, [6 x i8] }>
%class.scoped_refptr = type { ptr }
%"class.base::subtle::RefCountedBase" = type { i32 }

; Function Attrs: mustprogress nounwind uwtable
define linkonce_odr void @_ZNK4base6subtle14RefCountedBase6AddRefEv(ptr noundef nonnull align 4 dereferenceable(4) %0) #1 comdat align 2 {
  %2 = alloca ptr, align 8
  store ptr %0, ptr %2, align 8, !tbaa !547
  %3 = load ptr, ptr %2, align 8
  %4 = getelementptr inbounds nuw %"class.base::subtle::RefCountedBase", ptr %3, i32 0, i32 0
  %5 = load i32, ptr %4, align 4, !tbaa !549
  %6 = add nsw i32 %5, 1
  store i32 %6, ptr %4, align 4, !tbaa !549
  ret void
}

; Function Attrs: mustprogress uwtable
define linkonce_odr void @_ZNK4base10RefCountedIN3net24QuicAckListenerInterfaceEE6AddRefEv(ptr noundef nonnull align 4 dereferenceable(4) %0) #0 comdat align 2 {
  %2 = alloca ptr, align 8
  store ptr %0, ptr %2, align 8, !tbaa !545
  %3 = load ptr, ptr %2, align 8
  call void @_ZNK4base6subtle14RefCountedBase6AddRefEv(ptr noundef nonnull align 4 dereferenceable(4) %3)
  ret void
}

; Function Attrs: mustprogress uwtable
define linkonce_odr void @_ZN13scoped_refptrIN3net24QuicAckListenerInterfaceEE6AddRefEPS1_(ptr noundef %0) #0 comdat align 2 {
  %2 = alloca ptr, align 8
  store ptr %0, ptr %2, align 8, !tbaa !290
  %3 = load ptr, ptr %2, align 8, !tbaa !290
  %4 = getelementptr inbounds i8, ptr %3, i64 8
  call void @_ZNK4base10RefCountedIN3net24QuicAckListenerInterfaceEE6AddRefEv(ptr noundef nonnull align 4 dereferenceable(4) %4)
  ret void
}

; Function Attrs: mustprogress uwtable
define linkonce_odr void @_ZN13scoped_refptrIN3net24QuicAckListenerInterfaceEEC2EPS1_(ptr noundef nonnull align 8 dereferenceable(8) %0, ptr noundef %1) unnamed_addr #0 comdat align 2 {
  %3 = alloca ptr, align 8
  %4 = alloca ptr, align 8
  store ptr %0, ptr %3, align 8, !tbaa !295
  store ptr %1, ptr %4, align 8, !tbaa !290
  %5 = load ptr, ptr %3, align 8
  %6 = getelementptr inbounds nuw %class.scoped_refptr, ptr %5, i32 0, i32 0
  %7 = load ptr, ptr %4, align 8, !tbaa !290
  store ptr %7, ptr %6, align 8, !tbaa !297
  %8 = getelementptr inbounds nuw %class.scoped_refptr, ptr %5, i32 0, i32 0
  %9 = load ptr, ptr %8, align 8, !tbaa !297
  %10 = icmp ne ptr %9, null
  br i1 %10, label %11, label %14

11:                                               ; preds = %2
  %12 = getelementptr inbounds nuw %class.scoped_refptr, ptr %5, i32 0, i32 0
  %13 = load ptr, ptr %12, align 8, !tbaa !297
  call void @_ZN13scoped_refptrIN3net24QuicAckListenerInterfaceEE6AddRefEPS1_(ptr noundef %13)
  br label %14

14:                                               ; preds = %11, %2
  ret void
}

; Function Attrs: mustprogress uwtable
define void @_ZN3net18AckListenerWrapperC2EPNS_24QuicAckListenerInterfaceEt(ptr noundef nonnull align 8 dereferenceable(10) %0, ptr noundef %1, i16 noundef zeroext %2) unnamed_addr #0 align 2 {
  %4 = alloca ptr, align 8
  %5 = alloca ptr, align 8
  %6 = alloca i16, align 2
  store ptr %0, ptr %4, align 8, !tbaa !288
  store ptr %1, ptr %5, align 8, !tbaa !290
  store i16 %2, ptr %6, align 2, !tbaa !80
  %7 = load ptr, ptr %4, align 8
  %8 = getelementptr inbounds nuw %"struct.net::AckListenerWrapper", ptr %7, i32 0, i32 0
  %9 = load ptr, ptr %5, align 8, !tbaa !290
  call void @_ZN13scoped_refptrIN3net24QuicAckListenerInterfaceEEC2EPS1_(ptr noundef nonnull align 8 dereferenceable(8) %8, ptr noundef %9)
  %10 = getelementptr inbounds nuw %"struct.net::AckListenerWrapper", ptr %7, i32 0, i32 1
  %11 = load i16, ptr %6, align 2, !tbaa !80
  store i16 %11, ptr %10, align 8, !tbaa !292
  ret void
}