; Function Attrs: mustprogress nofree norecurse nosync nounwind willreturn memory(argmem: readwrite) uwtable
define void @_ZN3net18AckListenerWrapperC2EPNS_24QuicAckListenerInterfaceEt(ptr noundef nonnull writeonly align 8 captures(none) dereferenceable(10) initializes((0, 10)) %0, ptr noundef %1, i16 noundef zeroext %2) unnamed_addr #10 align 2 {
  store ptr %1, ptr %0, align 8, !tbaa !224
  %.not.i = icmp eq ptr %1, null
  br i1 %.not.i, label %_ZN13scoped_refptrIN3net24QuicAckListenerInterfaceEEC2EPS1_.exit, label %4

4:                                                ; preds = %3
  %5 = getelementptr inbounds nuw i8, ptr %1, i64 8
  %6 = load i32, ptr %5, align 4, !tbaa !227
  %7 = add nsw i32 %6, 1
  store i32 %7, ptr %5, align 4, !tbaa !227
  br label %_ZN13scoped_refptrIN3net24QuicAckListenerInterfaceEEC2EPS1_.exit

_ZN13scoped_refptrIN3net24QuicAckListenerInterfaceEEC2EPS1_.exit: ; preds = %3, %4
  %8 = getelementptr inbounds nuw i8, ptr %0, i64 8
  store i16 %2, ptr %8, align 8, !tbaa !229
  ret void
}